target datalayout = "e-m:e-p270:32:32-p271:32:32-p272:64:64-i64:64-i128:128-f80:128-n8:16:32:64-S128"
target triple = "x86_64-pc-linux-gnu"

%"class.sat::literal" = type { i32 }
%class.svector.57 = type { %class.vector.58 }
%class.vector.58 = type { ptr }
%class.svector.59 = type { %class.vector.60 }
%class.vector.60 = type { ptr }

; Function Attrs: mustprogress nounwind uwtable
define linkonce_odr hidden void @_ZN6vectorISt4pairIPN3euf5enodeES3_ELb0EjEC2Ev(ptr noundef nonnull align 8 dereferenceable(8) %0) unnamed_addr #6 comdat align 2 {
  %2 = alloca ptr, align 8
  store ptr %0, ptr %2, align 8, !tbaa !503
  %3 = load ptr, ptr %2, align 8
  %4 = getelementptr inbounds nuw %class.vector.58, ptr %3, i32 0, i32 0
  store ptr null, ptr %4, align 8, !tbaa !506
  ret void
}

; Function Attrs: mustprogress nounwind uwtable
define linkonce_odr hidden noundef i32 @_ZNK6vectorIN3sat7literalELb0EjE4sizeEv(ptr noundef nonnull align 8 dereferenceable(8) %0) #6 comdat align 2 {
  %2 = alloca i32, align 4
  %3 = alloca ptr, align 8
  store ptr %0, ptr %3, align 8, !tbaa !492
  %4 = load ptr, ptr %3, align 8
  %5 = getelementptr inbounds nuw %class.vector.60, ptr %4, i32 0, i32 0
  %6 = load ptr, ptr %5, align 8, !tbaa !494
  %7 = icmp eq ptr %6, null
  br i1 %7, label %8, label %9

8:                                                ; preds = %1
  store i32 0, ptr %2, align 4
  br label %14

9:                                                ; preds = %1
  %10 = getelementptr inbounds nuw %class.vector.60, ptr %4, i32 0, i32 0
  %11 = load ptr, ptr %10, align 8, !tbaa !494
  %12 = getelementptr inbounds i32, ptr %11, i64 -1
  %13 = load i32, ptr %12, align 4, !tbaa !434
  store i32 %13, ptr %2, align 4
  br label %14

14:                                               ; preds = %9, %8
  %15 = load i32, ptr %2, align 4
  ret i32 %15
}

; Function Attrs: mustprogress nounwind uwtable
define linkonce_odr hidden void @_ZN6vectorIN3sat7literalELb0EjEC2Ev(ptr noundef nonnull align 8 dereferenceable(8) %0) unnamed_addr #6 comdat align 2 {
  %2 = alloca ptr, align 8
  store ptr %0, ptr %2, align 8, !tbaa !492
  %3 = load ptr, ptr %2, align 8
  %4 = getelementptr inbounds nuw %class.vector.60, ptr %3, i32 0, i32 0
  store ptr null, ptr %4, align 8, !tbaa !494
  ret void
}

; Function Attrs: mustprogress nounwind uwtable
define linkonce_odr hidden void @_ZN7svectorISt4pairIPN3euf5enodeES3_EjEC2Ev(ptr noundef nonnull align 8 dereferenceable(8) %0) unnamed_addr #6 comdat align 2 {
  %2 = alloca ptr, align 8
  store ptr %0, ptr %2, align 8, !tbaa !495
  %3 = load ptr, ptr %2, align 8
  call void @_ZN6vectorISt4pairIPN3euf5enodeES3_ELb0EjEC2Ev(ptr noundef nonnull align 8 dereferenceable(8) %3) #3
  ret void
}

; Function Attrs: mustprogress uwtable
define linkonce_odr hidden noundef nonnull align 8 dereferenceable(8) ptr @_ZN6vectorIN3sat7literalELb0EjE9push_backEOS1_(ptr noundef nonnull align 8 dereferenceable(8) %0, ptr noundef nonnull align 4 dereferenceable(4) %1) #4 comdat align 2 {
  %3 = alloca ptr, align 8
  %4 = alloca ptr, align 8
  store ptr %0, ptr %3, align 8, !tbaa !492
  store ptr %1, ptr %4, align 8, !tbaa !446
  %5 = load ptr, ptr %3, align 8
  %6 = getelementptr inbounds nuw %class.vector.60, ptr %5, i32 0, i32 0
  %7 = load ptr, ptr %6, align 8, !tbaa !494
  %8 = icmp eq ptr %7, null
  br i1 %8, label %19, label %9

9:                                                ; preds = %2
  %10 = getelementptr inbounds nuw %class.vector.60, ptr %5, i32 0, i32 0
  %11 = load ptr, ptr %10, align 8, !tbaa !494
  %12 = getelementptr inbounds i32, ptr %11, i64 -1
  %13 = load i32, ptr %12, align 4, !tbaa !434
  %14 = getelementptr inbounds nuw %class.vector.60, ptr %5, i32 0, i32 0
  %15 = load ptr, ptr %14, align 8, !tbaa !494
  %16 = getelementptr inbounds i32, ptr %15, i64 -2
  %17 = load i32, ptr %16, align 4, !tbaa !434
  %18 = icmp eq i32 %13, %17
  br i1 %18, label %19, label %20

19:                                               ; preds = %9, %2
  call void @_ZN6vectorIN3sat7literalELb0EjE13expand_vectorEv(ptr noundef nonnull align 8 dereferenceable(8) %5)
  br label %20

20:                                               ; preds = %19, %9
  %21 = getelementptr inbounds nuw %class.vector.60, ptr %5, i32 0, i32 0
  %22 = load ptr, ptr %21, align 8, !tbaa !494
  %23 = getelementptr inbounds nuw %class.vector.60, ptr %5, i32 0, i32 0
  %24 = load ptr, ptr %23, align 8, !tbaa !494
  %25 = getelementptr inbounds i32, ptr %24, i64 -1
  %26 = load i32, ptr %25, align 4, !tbaa !434
  %27 = zext i32 %26 to i64
  %28 = getelementptr inbounds nuw %"class.sat::literal", ptr %22, i64 %27
  %29 = load ptr, ptr %4, align 8, !tbaa !446
  call void @llvm.memcpy.p0.p0.i64(ptr align 4 %28, ptr align 4 %29, i64 4, i1 false), !tbaa.struct !442
  %30 = getelementptr inbounds nuw %class.vector.60, ptr %5, i32 0, i32 0
  %31 = load ptr, ptr %30, align 8, !tbaa !494
  %32 = getelementptr inbounds i32, ptr %31, i64 -1
  %33 = load i32, ptr %32, align 4, !tbaa !434
  %34 = add i32 %33, 1
  store i32 %34, ptr %32, align 4, !tbaa !434
  ret ptr %5
}

; Function Attrs: mustprogress nounwind uwtable
define linkonce_odr hidden i32 @_ZN3satcoENS_7literalE(i32 %0) #6 comdat {
  %2 = alloca %"class.sat::literal", align 4
  %3 = alloca %"class.sat::literal", align 4
  %4 = getelementptr inbounds nuw %"class.sat::literal", ptr %3, i32 0, i32 0
  store i32 %0, ptr %4, align 4
  %5 = getelementptr inbounds nuw %"class.sat::literal", ptr %3, i32 0, i32 0
  %6 = load i32, ptr %5, align 4, !tbaa !447
  %7 = xor i32 %6, 1
  %8 = getelementptr inbounds nuw %"class.sat::literal", ptr %3, i32 0, i32 0
  store i32 %7, ptr %8, align 4, !tbaa !447
  call void @llvm.memcpy.p0.p0.i64(ptr align 4 %2, ptr align 4 %3, i64 4, i1 false), !tbaa.struct !442
  %9 = getelementptr inbounds nuw %"class.sat::literal", ptr %2, i32 0, i32 0
  %10 = load i32, ptr %9, align 4
  ret i32 %10
}

; Function Attrs: mustprogress nounwind uwtable
define linkonce_odr hidden noundef ptr @_ZNK6vectorIN3sat7literalELb0EjE3endEv(ptr noundef nonnull align 8 dereferenceable(8) %0) #6 comdat align 2 {
  %2 = alloca ptr, align 8
  store ptr %0, ptr %2, align 8, !tbaa !492
  %3 = load ptr, ptr %2, align 8
  %4 = getelementptr inbounds nuw %class.vector.60, ptr %3, i32 0, i32 0
  %5 = load ptr, ptr %4, align 8, !tbaa !494
  %6 = call noundef i32 @_ZNK6vectorIN3sat7literalELb0EjE4sizeEv(ptr noundef nonnull align 8 dereferenceable(8) %3)
  %7 = zext i32 %6 to i64
  %8 = getelementptr inbounds nuw %"class.sat::literal", ptr %5, i64 %7
  ret ptr %8
}

; Function Attrs: mustprogress nounwind uwtable
define linkonce_odr hidden noundef ptr @_ZNK6vectorIN3sat7literalELb0EjE5beginEv(ptr noundef nonnull align 8 dereferenceable(8) %0) #6 comdat align 2 {
  %2 = alloca ptr, align 8
  store ptr %0, ptr %2, align 8, !tbaa !492
  %3 = load ptr, ptr %2, align 8
  %4 = getelementptr inbounds nuw %class.vector.60, ptr %3, i32 0, i32 0
  %5 = load ptr, ptr %4, align 8, !tbaa !494
  ret ptr %5
}

; Function Attrs: mustprogress nounwind uwtable
define linkonce_odr hidden void @_ZN7svectorIN3sat7literalEjEC2Ev(ptr noundef nonnull align 8 dereferenceable(8) %0) unnamed_addr #6 comdat align 2 {
  %2 = alloca ptr, align 8
  store ptr %0, ptr %2, align 8, !tbaa !425
  %3 = load ptr, ptr %2, align 8
  call void @_ZN6vectorIN3sat7literalELb0EjEC2Ev(ptr noundef nonnull align 8 dereferenceable(8) %3) #3
  ret void
}

; Function Attrs: mustprogress uwtable
define hidden noundef i32 @_ZN8intblast6solver11check_axiomERK7svectorIN3sat7literalEjE(ptr noundef nonnull align 8 dereferenceable(420) %0, ptr noundef nonnull align 8 dereferenceable(8) %1) #4 align 2 personality ptr @__gxx_personality_v0 {
  %3 = alloca ptr, align 8
  %4 = alloca ptr, align 8
  %5 = alloca %class.svector.59, align 8
  %6 = alloca ptr, align 8
  %7 = alloca ptr, align 8
  %8 = alloca ptr, align 8
  %9 = alloca i32, align 4
  %10 = alloca ptr, align 8
  %11 = alloca %"class.sat::literal", align 4
  %12 = alloca %"class.sat::literal", align 4
  %13 = alloca %"class.sat::literal", align 4
  %14 = alloca %class.svector.57, align 8
  store ptr %0, ptr %3, align 8, !tbaa !19
  store ptr %1, ptr %4, align 8, !tbaa !425
  %15 = load ptr, ptr %3, align 8
  call void @llvm.lifetime.start.p0(i64 8, ptr %5) #3
  call void @_ZN7svectorIN3sat7literalEjEC2Ev(ptr noundef nonnull align 8 dereferenceable(8) %5) #3
  call void @llvm.lifetime.start.p0(i64 8, ptr %6) #3
  %16 = load ptr, ptr %4, align 8, !tbaa !425
  store ptr %16, ptr %6, align 8, !tbaa !425
  call void @llvm.lifetime.start.p0(i64 8, ptr %7) #3
  %17 = load ptr, ptr %6, align 8, !tbaa !425
  %18 = invoke noundef ptr @_ZNK6vectorIN3sat7literalELb0EjE5beginEv(ptr noundef nonnull align 8 dereferenceable(8) %17)
          to label %19 unwind label %28

19:                                               ; preds = %2
  store ptr %18, ptr %7, align 8, !tbaa !446
  call void @llvm.lifetime.start.p0(i64 8, ptr %10) #3
  %20 = load ptr, ptr %6, align 8, !tbaa !425
  %21 = invoke noundef ptr @_ZNK6vectorIN3sat7literalELb0EjE3endEv(ptr noundef nonnull align 8 dereferenceable(8) %20)
          to label %22 unwind label %32

22:                                               ; preds = %19
  store ptr %21, ptr %10, align 8, !tbaa !446
  br label %23

23:                                               ; preds = %45, %22
  %24 = load ptr, ptr %7, align 8, !tbaa !446
  %25 = load ptr, ptr %10, align 8, !tbaa !446
  %26 = icmp ne ptr %24, %25
  br i1 %26, label %36, label %27

27:                                               ; preds = %23
  call void @llvm.lifetime.end.p0(i64 8, ptr %10) #3
  call void @llvm.lifetime.end.p0(i64 8, ptr %7) #3
  call void @llvm.lifetime.end.p0(i64 8, ptr %6) #3
  br label %54

28:                                               ; preds = %2
  %29 = landingpad { ptr, i32 }
          cleanup
  %30 = extractvalue { ptr, i32 } %29, 0
  store ptr %30, ptr %8, align 8
  %31 = extractvalue { ptr, i32 } %29, 1
  store i32 %31, ptr %9, align 4
  br label %53

32:                                               ; preds = %19
  %33 = landingpad { ptr, i32 }
          cleanup
  %34 = extractvalue { ptr, i32 } %33, 0
  store ptr %34, ptr %8, align 8
  %35 = extractvalue { ptr, i32 } %33, 1
  store i32 %35, ptr %9, align 4
  br label %52

36:                                               ; preds = %23
  call void @llvm.lifetime.start.p0(i64 4, ptr %11) #3
  %37 = load ptr, ptr %7, align 8, !tbaa !446
  call void @llvm.memcpy.p0.p0.i64(ptr align 4 %11, ptr align 4 %37, i64 4, i1 false), !tbaa.struct !442
  call void @llvm.lifetime.start.p0(i64 4, ptr %12) #3
  call void @llvm.memcpy.p0.p0.i64(ptr align 4 %13, ptr align 4 %11, i64 4, i1 false), !tbaa.struct !442
  %38 = getelementptr inbounds nuw %"class.sat::literal", ptr %13, i32 0, i32 0
  %39 = load i32, ptr %38, align 4
  %40 = invoke i32 @_ZN3satcoENS_7literalE(i32 %39)
          to label %41 unwind label %48

41:                                               ; preds = %36
  %42 = getelementptr inbounds nuw %"class.sat::literal", ptr %12, i32 0, i32 0
  store i32 %40, ptr %42, align 4
  %43 = invoke noundef nonnull align 8 dereferenceable(8) ptr @_ZN6vectorIN3sat7literalELb0EjE9push_backEOS1_(ptr noundef nonnull align 8 dereferenceable(8) %5, ptr noundef nonnull align 4 dereferenceable(4) %12)
          to label %44 unwind label %48

44:                                               ; preds = %41
  call void @llvm.lifetime.end.p0(i64 4, ptr %12) #3
  call void @llvm.lifetime.end.p0(i64 4, ptr %11) #3
  br label %45

45:                                               ; preds = %44
  %46 = load ptr, ptr %7, align 8, !tbaa !446
  %47 = getelementptr inbounds nuw %"class.sat::literal", ptr %46, i32 1
  store ptr %47, ptr %7, align 8, !tbaa !446
  br label %23

48:                                               ; preds = %41, %36
  %49 = landingpad { ptr, i32 }
          cleanup
  %50 = extractvalue { ptr, i32 } %49, 0
  store ptr %50, ptr %8, align 8
  %51 = extractvalue { ptr, i32 } %49, 1
  store i32 %51, ptr %9, align 4
  call void @llvm.lifetime.end.p0(i64 4, ptr %12) #3
  call void @llvm.lifetime.end.p0(i64 4, ptr %11) #3
  br label %52

52:                                               ; preds = %48, %32
  call void @llvm.lifetime.end.p0(i64 8, ptr %10) #3
  br label %53

53:                                               ; preds = %52, %28
  call void @llvm.lifetime.end.p0(i64 8, ptr %7) #3
  call void @llvm.lifetime.end.p0(i64 8, ptr %6) #3
  br label %61

54:                                               ; preds = %27
  call void @llvm.lifetime.start.p0(i64 8, ptr %14) #3
  call void @llvm.memset.p0.i64(ptr align 8 %14, i8 0, i64 8, i1 false)
  call void @_ZN7svectorISt4pairIPN3euf5enodeES3_EjEC2Ev(ptr noundef nonnull align 8 dereferenceable(8) %14) #3
  %55 = invoke noundef i32 @_ZN8intblast6solver10check_coreERK7svectorIN3sat7literalEjERKS1_ISt4pairIPN3euf5enodeESA_EjE(ptr noundef nonnull align 8 dereferenceable(420) %15, ptr noundef nonnull align 8 dereferenceable(8) %5, ptr noundef nonnull align 8 dereferenceable(8) %14)
          to label %56 unwind label %57

56:                                               ; preds = %54
  call void @_ZN6vectorISt4pairIPN3euf5enodeES3_ELb0EjED2Ev(ptr noundef nonnull align 8 dereferenceable(8) %14) #3
  call void @llvm.lifetime.end.p0(i64 8, ptr %14) #3
  call void @_ZN6vectorIN3sat7literalELb0EjED2Ev(ptr noundef nonnull align 8 dereferenceable(8) %5) #3
  call void @llvm.lifetime.end.p0(i64 8, ptr %5) #3
  ret i32 %55

57:                                               ; preds = %54
  %58 = landingpad { ptr, i32 }
          cleanup
  %59 = extractvalue { ptr, i32 } %58, 0
  store ptr %59, ptr %8, align 8
  %60 = extractvalue { ptr, i32 } %58, 1
  store i32 %60, ptr %9, align 4
  call void @_ZN6vectorISt4pairIPN3euf5enodeES3_ELb0EjED2Ev(ptr noundef nonnull align 8 dereferenceable(8) %14) #3
  call void @llvm.lifetime.end.p0(i64 8, ptr %14) #3
  br label %61

61:                                               ; preds = %57, %53
  call void @_ZN6vectorIN3sat7literalELb0EjED2Ev(ptr noundef nonnull align 8 dereferenceable(8) %5) #3
  call void @llvm.lifetime.end.p0(i64 8, ptr %5) #3
  br label %62

62:                                               ; preds = %61
  %63 = load ptr, ptr %8, align 8
  %64 = load i32, ptr %9, align 4
  %65 = insertvalue { ptr, i32 } poison, ptr %63, 0
  %66 = insertvalue { ptr, i32 } %65, i32 %64, 1
  resume { ptr, i32 } %66
}