; Function Attrs: mustprogress uwtable
define hidden noundef i32 @_ZN8intblast6solver11check_axiomERK7svectorIN3sat7literalEjE(ptr noundef nonnull align 8 dereferenceable(420) %0, ptr noundef nonnull readonly align 8 captures(none) dereferenceable(8) %1) local_unnamed_addr #3 align 2 personality ptr @__gxx_personality_v0 {
  %3 = alloca %class.svector.59, align 8
  %4 = alloca %class.svector.57, align 8
  call void @llvm.lifetime.start.p0(i64 8, ptr nonnull %3) #26
  store ptr null, ptr %3, align 8, !tbaa !487
  %5 = load ptr, ptr %1, align 8, !tbaa !487
  %6 = icmp eq ptr %5, null
  br i1 %6, label %._crit_edge, label %_ZNK6vectorIN3sat7literalELb0EjE3endEv.exit

_ZNK6vectorIN3sat7literalELb0EjE3endEv.exit:      ; preds = %2
  %7 = getelementptr inbounds i8, ptr %5, i64 -4
  %8 = load i32, ptr %7, align 4, !tbaa !21
  %9 = zext i32 %8 to i64
  %10 = getelementptr inbounds nuw %"class.sat::literal", ptr %5, i64 %9
  %.not14 = icmp eq i32 %8, 0
  br i1 %.not14, label %._crit_edge, label %.lr.ph

._crit_edge:                                      ; preds = %22, %2, %_ZNK6vectorIN3sat7literalELb0EjE3endEv.exit
  call void @llvm.lifetime.start.p0(i64 8, ptr nonnull %4) #26
  store ptr null, ptr %4, align 8, !tbaa !488
  %11 = invoke noundef i32 @_ZN8intblast6solver10check_coreERK7svectorIN3sat7literalEjERKS1_ISt4pairIPN3euf5enodeESA_EjE(ptr noundef nonnull align 8 dereferenceable(420) %0, ptr noundef nonnull align 8 dereferenceable(8) %3, ptr noundef nonnull align 8 dereferenceable(8) %4)
          to label %_ZN6vectorISt4pairIPN3euf5enodeES3_ELb0EjED2Ev.exit unwind label %37

.lr.ph:                                           ; preds = %_ZNK6vectorIN3sat7literalELb0EjE3endEv.exit, %22
  %12 = phi ptr [ %23, %22 ], [ null, %_ZNK6vectorIN3sat7literalELb0EjE3endEv.exit ]
  %.015 = phi ptr [ %29, %22 ], [ %5, %_ZNK6vectorIN3sat7literalELb0EjE3endEv.exit ]
  %.sroa.01.0.copyload = load i32, ptr %.015, align 4, !tbaa !21
  %13 = xor i32 %.sroa.01.0.copyload, 1
  %14 = icmp eq ptr %12, null
  br i1 %14, label %21, label %15

15:                                               ; preds = %.lr.ph
  %16 = getelementptr inbounds i8, ptr %12, i64 -4
  %17 = load i32, ptr %16, align 4, !tbaa !21
  %18 = getelementptr inbounds i8, ptr %12, i64 -8
  %19 = load i32, ptr %18, align 4, !tbaa !21
  %20 = icmp eq i32 %17, %19
  br i1 %20, label %21, label %22

21:                                               ; preds = %15, %.lr.ph
  invoke void @_ZN6vectorIN3sat7literalELb0EjE13expand_vectorEv(ptr noundef nonnull align 8 dereferenceable(8) %3)
          to label %.noexc unwind label %30

.noexc:                                           ; preds = %21
  %.pre.i = load ptr, ptr %3, align 8, !tbaa !487
  %.phi.trans.insert.i = getelementptr inbounds i8, ptr %.pre.i, i64 -4
  %.pre2.i = load i32, ptr %.phi.trans.insert.i, align 4, !tbaa !21
  br label %22

22:                                               ; preds = %.noexc, %15
  %23 = phi ptr [ %.pre.i, %.noexc ], [ %12, %15 ]
  %24 = phi i32 [ %.pre2.i, %.noexc ], [ %17, %15 ]
  %25 = getelementptr inbounds i8, ptr %23, i64 -4
  %26 = zext i32 %24 to i64
  %27 = getelementptr inbounds nuw %"class.sat::literal", ptr %23, i64 %26
  store i32 %13, ptr %27, align 4, !tbaa !21
  %28 = add i32 %24, 1
  store i32 %28, ptr %25, align 4, !tbaa !21
  %29 = getelementptr inbounds nuw i8, ptr %.015, i64 4
  %.not = icmp eq ptr %29, %10
  br i1 %.not, label %._crit_edge, label %.lr.ph

30:                                               ; preds = %21
  %31 = landingpad { ptr, i32 }
          cleanup
  br label %39

_ZN6vectorISt4pairIPN3euf5enodeES3_ELb0EjED2Ev.exit: ; preds = %._crit_edge
  %.pre = load ptr, ptr %3, align 8, !tbaa !487
  call void @llvm.lifetime.end.p0(i64 8, ptr nonnull %4) #26
  %.not.i.i13 = icmp eq ptr %.pre, null
  br i1 %.not.i.i13, label %_ZN6vectorIN3sat7literalELb0EjED2Ev.exit, label %32

32:                                               ; preds = %_ZN6vectorISt4pairIPN3euf5enodeES3_ELb0EjED2Ev.exit
  %33 = getelementptr inbounds i8, ptr %.pre, i64 -8
  invoke void @_ZN6memory10deallocateEPv(ptr noundef nonnull %33)
          to label %_ZN6vectorIN3sat7literalELb0EjED2Ev.exit unwind label %34

34:                                               ; preds = %32
  %35 = landingpad { ptr, i32 }
          catch ptr null
  %36 = extractvalue { ptr, i32 } %35, 0
  call void @__clang_call_terminate(ptr %36) #27
  unreachable

_ZN6vectorIN3sat7literalELb0EjED2Ev.exit:         ; preds = %_ZN6vectorISt4pairIPN3euf5enodeES3_ELb0EjED2Ev.exit, %32
  call void @llvm.lifetime.end.p0(i64 8, ptr nonnull %3) #26
  ret i32 %11

37:                                               ; preds = %._crit_edge
  %38 = landingpad { ptr, i32 }
          cleanup
  call void @_ZN6vectorISt4pairIPN3euf5enodeES3_ELb0EjED2Ev(ptr noundef nonnull align 8 dereferenceable(8) %4) #26
  call void @llvm.lifetime.end.p0(i64 8, ptr nonnull %4) #26
  br label %39

39:                                               ; preds = %37, %30
  %.pn = phi { ptr, i32 } [ %31, %30 ], [ %38, %37 ]
  call void @_ZN6vectorIN3sat7literalELb0EjED2Ev(ptr noundef nonnull align 8 dereferenceable(8) %3) #26
  call void @llvm.lifetime.end.p0(i64 8, ptr nonnull %3) #26
  resume { ptr, i32 } %.pn
}